target datalayout = "e-m:e-p270:32:32-p271:32:32-p272:64:64-i64:64-i128:128-f80:128-n8:16:32:64-S128"
target triple = "x86_64-pc-linux-gnu"

%struct._zend_array = type { %struct._zend_refcounted_h, %union.anon.4, i32, %union.anon.6, i32, i32, i32, i32, i64, ptr }
%struct._zend_refcounted_h = type { i32, %union.anon.3 }
%union.anon.3 = type { i32 }
%union.anon.4 = type { i32 }
%union.anon.6 = type { ptr }
%struct._zend_class_entry = type { i8, ptr, %union.anon.8, i32, i32, i32, i32, ptr, ptr, ptr, %struct._zend_array, %struct._zend_array, %struct._zend_array, ptr, ptr, ptr, ptr, ptr, ptr, ptr, ptr, ptr, ptr, ptr, ptr, ptr, ptr, ptr, ptr, ptr, ptr, ptr, %union.anon.9, ptr, ptr, ptr, ptr, i32, i32, %union.anon.10, ptr, ptr, ptr, ptr, i32, ptr, ptr, %union.anon.11 }
%union.anon.8 = type { ptr }
%union.anon.9 = type { ptr }
%union.anon.10 = type { ptr }
%union.anon.11 = type { %struct.anon.12 }
%struct.anon.12 = type { ptr, i32, i32 }
%struct._zend_string = type { %struct._zend_refcounted_h, i64, i64, [1 x i8] }

@.str.47 = private unnamed_addr constant [10 x i8] c"Exception\00", align 1
@.str.48 = private unnamed_addr constant [6 x i8] c"Error\00", align 1
@.str.49 = private unnamed_addr constant [71 x i8] c"%s %s cannot implement interface %s, extend Exception or Error instead\00", align 1
@.str.50 = private unnamed_addr constant [36 x i8] c"%s %s cannot implement interface %s\00", align 1

; Function Attrs: nounwind uwtable
define internal i32 @zend_implement_throwable(ptr noundef %0, ptr noundef %1) #0 {
  %3 = alloca ptr, align 8
  %4 = alloca ptr, align 8
  %5 = alloca ptr, align 8
  %6 = alloca i64, align 8
  %7 = alloca ptr, align 8
  %8 = alloca ptr, align 8
  %9 = alloca i64, align 8
  %10 = alloca ptr, align 8
  %11 = alloca ptr, align 8
  %12 = alloca ptr, align 8
  %13 = alloca i8, align 1
  store ptr %0, ptr %10, align 8
  store ptr %1, ptr %11, align 8
  %14 = load ptr, ptr %11, align 8
  store ptr %14, ptr %12, align 8
  br label %15

15:                                               ; preds = %20, %2
  %16 = load ptr, ptr %12, align 8
  %17 = getelementptr inbounds %struct._zend_class_entry, ptr %16, i32 0, i32 2
  %18 = load ptr, ptr %17, align 8
  %19 = icmp ne ptr %18, null
  br i1 %19, label %20, label %24

20:                                               ; preds = %15
  %21 = load ptr, ptr %12, align 8
  %22 = getelementptr inbounds %struct._zend_class_entry, ptr %21, i32 0, i32 2
  %23 = load ptr, ptr %22, align 8
  store ptr %23, ptr %12, align 8
  br label %15

24:                                               ; preds = %15
  %25 = load ptr, ptr %12, align 8
  %26 = getelementptr inbounds %struct._zend_class_entry, ptr %25, i32 0, i32 1
  %27 = load ptr, ptr %26, align 8
  store ptr %27, ptr %4, align 8
  store ptr @.str.47, ptr %5, align 8
  store i64 9, ptr %6, align 8
  %28 = load ptr, ptr %4, align 8
  %29 = getelementptr inbounds %struct._zend_string, ptr %28, i32 0, i32 2
  %30 = load i64, ptr %29, align 8
  %31 = load i64, ptr %6, align 8
  %32 = icmp eq i64 %30, %31
  br i1 %32, label %33, label %41

33:                                               ; preds = %24
  %34 = load ptr, ptr %4, align 8
  %35 = getelementptr inbounds %struct._zend_string, ptr %34, i32 0, i32 3
  %36 = load ptr, ptr %5, align 8
  %37 = load i64, ptr %6, align 8
  %38 = call i32 @memcmp(ptr noundef %35, ptr noundef %36, i64 noundef %37) #14
  %39 = icmp ne i32 %38, 0
  %40 = xor i1 %39, true
  br label %41

41:                                               ; preds = %33, %24
  %42 = phi i1 [ false, %24 ], [ %40, %33 ]
  br i1 %42, label %62, label %43

43:                                               ; preds = %41
  %44 = load ptr, ptr %12, align 8
  %45 = getelementptr inbounds %struct._zend_class_entry, ptr %44, i32 0, i32 1
  %46 = load ptr, ptr %45, align 8
  store ptr %46, ptr %7, align 8
  store ptr @.str.48, ptr %8, align 8
  store i64 5, ptr %9, align 8
  %47 = load ptr, ptr %7, align 8
  %48 = getelementptr inbounds %struct._zend_string, ptr %47, i32 0, i32 2
  %49 = load i64, ptr %48, align 8
  %50 = load i64, ptr %9, align 8
  %51 = icmp eq i64 %49, %50
  br i1 %51, label %52, label %60

52:                                               ; preds = %43
  %53 = load ptr, ptr %7, align 8
  %54 = getelementptr inbounds %struct._zend_string, ptr %53, i32 0, i32 3
  %55 = load ptr, ptr %8, align 8
  %56 = load i64, ptr %9, align 8
  %57 = call i32 @memcmp(ptr noundef %54, ptr noundef %55, i64 noundef %56) #14
  %58 = icmp ne i32 %57, 0
  %59 = xor i1 %58, true
  br label %60

60:                                               ; preds = %52, %43
  %61 = phi i1 [ false, %43 ], [ %59, %52 ]
  br i1 %61, label %62, label %63

62:                                               ; preds = %60, %41
  ret i32 0

63:                                               ; preds = %60
  %64 = load ptr, ptr %11, align 8
  %65 = getelementptr inbounds %struct._zend_class_entry, ptr %64, i32 0, i32 4
  %66 = load i32, ptr %65, align 4
  %67 = and i32 %66, 268435456
  %68 = icmp eq i32 %67, 0
  %69 = zext i1 %68 to i8
  store i8 %69, ptr %13, align 1
  %70 = load i8, ptr %13, align 1
  %71 = trunc i8 %70 to i1
  %72 = select i1 %71, ptr @.str.49, ptr @.str.50
  %73 = load ptr, ptr %11, align 8
  store ptr %73, ptr %3, align 8
  %74 = load ptr, ptr %3, align 8
  %75 = call ptr @zend_get_object_type_case(ptr noundef %74, i1 noundef zeroext true) #12
  %76 = load ptr, ptr %11, align 8
  %77 = getelementptr inbounds %struct._zend_class_entry, ptr %76, i32 0, i32 1
  %78 = load ptr, ptr %77, align 8
  %79 = getelementptr inbounds %struct._zend_string, ptr %78, i32 0, i32 3
  %80 = getelementptr inbounds [1 x i8], ptr %79, i64 0, i64 0
  %81 = load ptr, ptr %10, align 8
  %82 = getelementptr inbounds %struct._zend_class_entry, ptr %81, i32 0, i32 1
  %83 = load ptr, ptr %82, align 8
  %84 = getelementptr inbounds %struct._zend_string, ptr %83, i32 0, i32 3
  %85 = getelementptr inbounds [1 x i8], ptr %84, i64 0, i64 0
  call void (i32, ptr, ...) @zend_error_noreturn(i32 noundef 1, ptr noundef %72, ptr noundef %75, ptr noundef %80, ptr noundef %85) #13
  unreachable
}