; Function Attrs: nounwind uwtable
define internal noundef i32 @zend_implement_throwable(ptr nocapture noundef readonly %0, ptr noundef %1) #0 {
  br label %3

3:                                                ; preds = %3, %2
  %.0 = phi ptr [ %1, %2 ], [ %5, %3 ]
  %4 = getelementptr inbounds i8, ptr %.0, i64 16
  %5 = load ptr, ptr %4, align 8
  %.not = icmp eq ptr %5, null
  br i1 %.not, label %6, label %3

6:                                                ; preds = %3
  %7 = getelementptr inbounds i8, ptr %.0, i64 8
  %8 = load ptr, ptr %7, align 8
  %9 = getelementptr inbounds i8, ptr %8, i64 16
  %10 = load i64, ptr %9, align 8
  switch i64 %10, label %.critedge2 [
    i64 9, label %11
    i64 5, label %13
  ]

11:                                               ; preds = %6
  %12 = getelementptr inbounds i8, ptr %8, i64 24
  %bcmp = tail call i32 @bcmp(ptr noundef nonnull dereferenceable(9) %12, ptr noundef nonnull dereferenceable(9) @.str.47, i64 9)
  %.not23 = icmp eq i32 %bcmp, 0
  br i1 %.not23, label %15, label %.critedge2

13:                                               ; preds = %6
  %14 = getelementptr inbounds i8, ptr %8, i64 24
  %bcmp24 = tail call i32 @bcmp(ptr noundef nonnull dereferenceable(5) %14, ptr noundef nonnull dereferenceable(5) @.str.48, i64 5)
  %.not25 = icmp eq i32 %bcmp24, 0
  br i1 %.not25, label %15, label %.critedge2

15:                                               ; preds = %13, %11
  ret i32 0

.critedge2:                                       ; preds = %6, %11, %13
  %16 = getelementptr inbounds i8, ptr %1, i64 28
  %17 = load i32, ptr %16, align 4
  %18 = and i32 %17, 268435456
  %19 = icmp eq i32 %18, 0
  %20 = select i1 %19, ptr @.str.49, ptr @.str.50
  %21 = tail call ptr @zend_get_object_type_case(ptr noundef %1, i1 noundef zeroext true) #15
  %22 = getelementptr inbounds i8, ptr %1, i64 8
  %23 = load ptr, ptr %22, align 8
  %24 = getelementptr inbounds i8, ptr %23, i64 24
  %25 = getelementptr inbounds i8, ptr %0, i64 8
  %26 = load ptr, ptr %25, align 8
  %27 = getelementptr inbounds i8, ptr %26, i64 24
  tail call void (i32, ptr, ...) @zend_error_noreturn(i32 noundef 1, ptr noundef nonnull %20, ptr noundef %21, ptr noundef nonnull %24, ptr noundef nonnull %27) #16
  unreachable
}